; Function Attrs: mustprogress uwtable
define noundef ptr @ucfpos_open_77(ptr noundef writeonly captures(none) %0) local_unnamed_addr #1 personality ptr @__gxx_personality_v0 {
  %2 = tail call noundef ptr @_ZN6icu_777UMemorynwEm(i64 noundef 40) #20
  %3 = icmp eq ptr %2, null
  br i1 %3, label %7, label %4

4:                                                ; preds = %1
  tail call void @llvm.memset.p0.i64(ptr noundef nonnull align 8 dereferenceable(40) %2, i8 0, i64 40, i1 false)
  store i32 1430472192, ptr %2, align 4, !tbaa !23
  %5 = getelementptr inbounds nuw i8, ptr %2, i64 8
  invoke void @_ZN6icu_7724ConstrainedFieldPositionC1Ev(ptr noundef nonnull align 8 dereferenceable(25) %5)
          to label %_ZN6icu_7729UConstrainedFieldPositionImplC2Ev.exit unwind label %.body

.body:                                            ; preds = %4
  %6 = landingpad { ptr, i32 }
          cleanup
  store i32 0, ptr %2, align 4, !tbaa !23
  tail call void @_ZN6icu_777UMemorydlEPv(ptr noundef nonnull %2) #20
  resume { ptr, i32 } %6

7:                                                ; preds = %1
  store i32 7, ptr %0, align 4, !tbaa !13
  br label %_ZN6icu_7729UConstrainedFieldPositionImplC2Ev.exit

_ZN6icu_7729UConstrainedFieldPositionImplC2Ev.exit: ; preds = %4, %7
  ret ptr %2
}